; Function Attrs: mustprogress uwtable
define hidden void @_ZN4cvc58internal6theory2fp12constantFold17componentExponentENS0_12NodeTemplateILb0EEEb(ptr noalias nocapture writeonly sret(%"struct.cvc5::internal::theory::RewriteResponse") align 8 %agg.result, ptr nocapture noundef readonly %node, i1 zeroext %isPreRewrite) #5 personality ptr @__gxx_personality_v0 {
entry:
  %arg0 = alloca %"class.cvc5::internal::FloatingPoint", align 8
  %agg.tmp = alloca %"class.cvc5::internal::NodeTemplate", align 8
  %ref.tmp5 = alloca %"class.cvc5::internal::BitVector", align 8
  %0 = load ptr, ptr %node, align 8, !noalias !542
  %d_kind.i.i.i.i = getelementptr inbounds i8, ptr %0, i64 8
  %bf.load.i.i.i.i = load i16, ptr %d_kind.i.i.i.i, align 8, !noalias !542
  %bf.clear.i.i.i.i = and i16 %bf.load.i.i.i.i, 1023
  %bf.cast.i.i.i.i = zext nneg i16 %bf.clear.i.i.i.i to i32
  %cmp.i.i.i.i.i = icmp eq i16 %bf.clear.i.i.i.i, 1023
  %cond.i.i.i.i.i = select i1 %cmp.i.i.i.i.i, i32 -1, i32 %bf.cast.i.i.i.i
  %call2.i.i.i = tail call noundef i32 @_ZN4cvc58internal4kind10metaKindOfENS1_6Kind_tE(i32 noundef %cond.i.i.i.i.i), !noalias !542
  %cmp.i.i = icmp eq i32 %call2.i.i.i, 2
  %d_children.i.i = getelementptr inbounds i8, ptr %0, i64 16
  %idxprom.i.i = zext i1 %cmp.i.i to i64
  %arrayidx.i.i = getelementptr inbounds [0 x ptr], ptr %d_children.i.i, i64 0, i64 %idxprom.i.i
  %1 = load ptr, ptr %arrayidx.i.i, align 8, !noalias !542
  %call.i4 = tail call noundef nonnull align 8 dereferenceable(8) ptr @_ZNK4cvc58internal4expr9NodeValue8getConstINS0_13FloatingPointEEERKT_v(ptr noundef nonnull align 8 dereferenceable(16) %1)
  call void @_ZN4cvc58internal13FloatingPointC1ERKS1_(ptr noundef nonnull align 8 dereferenceable(8) %arg0, ptr noundef nonnull align 8 dereferenceable(8) %call.i4)
  %call4 = invoke noundef ptr @_ZN4cvc58internal11NodeManager9currentNMEv()
          to label %invoke.cont3 unwind label %lpad2

invoke.cont3:                                     ; preds = %entry
  invoke void @_ZNK4cvc58internal13FloatingPoint11getExponentEv(ptr nonnull sret(%"class.cvc5::internal::BitVector") align 8 %ref.tmp5, ptr noundef nonnull align 8 dereferenceable(8) %arg0)
          to label %invoke.cont6 unwind label %lpad2

invoke.cont6:                                     ; preds = %invoke.cont3
  invoke void @_ZN4cvc58internal11NodeManager7mkConstINS0_9BitVectorEEENS0_12NodeTemplateILb1EEERKT_(ptr nonnull sret(%"class.cvc5::internal::NodeTemplate") align 8 %agg.tmp, ptr noundef nonnull align 8 dereferenceable(3360) %call4, ptr noundef nonnull align 8 dereferenceable(24) %ref.tmp5)
          to label %invoke.cont8 unwind label %lpad7

invoke.cont8:                                     ; preds = %invoke.cont6
  store i32 0, ptr %agg.result, align 8
  %d_node.i = getelementptr inbounds i8, ptr %agg.result, i64 8
  %2 = load ptr, ptr %agg.tmp, align 8
  store ptr %2, ptr %d_node.i, align 8
  %bf.load.i.i.i = load i64, ptr %2, align 8
  %bf.lshr.i.i.i = lshr i64 %bf.load.i.i.i, 40
  %3 = trunc i64 %bf.lshr.i.i.i to i32
  %bf.cast.i.i.i = and i32 %3, 1048575
  %cmp.i.i.i = icmp ult i32 %bf.cast.i.i.i, 1048574
  br i1 %cmp.i.i.i, label %if.then.i.i.i, label %if.else.i.i.i

if.then.i.i.i:                                    ; preds = %invoke.cont8
  %bf.value.i.i.i = add i64 %bf.load.i.i.i, 1099511627776
  %bf.shl.i.i.i = and i64 %bf.value.i.i.i, 1152920405095219200
  %bf.clear7.i.i.i = and i64 %bf.load.i.i.i, -1152920405095219201
  %bf.set.i.i.i = or disjoint i64 %bf.shl.i.i.i, %bf.clear7.i.i.i
  store i64 %bf.set.i.i.i, ptr %2, align 8
  br label %invoke.cont10

if.else.i.i.i:                                    ; preds = %invoke.cont8
  %cmp12.i.i.i = icmp eq i32 %bf.cast.i.i.i, 1048574
  br i1 %cmp12.i.i.i, label %if.then13.i.i.i, label %invoke.cont10

if.then13.i.i.i:                                  ; preds = %if.else.i.i.i
  %bf.set23.i.i.i = or i64 %bf.load.i.i.i, 1152920405095219200
  store i64 %bf.set23.i.i.i, ptr %2, align 8
  invoke void @_ZN4cvc58internal4expr9NodeValue20markRefCountMaxedOutEv(ptr noundef nonnull align 8 dereferenceable(16) %2)
          to label %invoke.cont10 unwind label %lpad9

invoke.cont10:                                    ; preds = %if.else.i.i.i, %if.then.i.i.i, %if.then13.i.i.i
  %4 = load ptr, ptr %agg.tmp, align 8
  %bf.load.i.i = load i64, ptr %4, align 8
  %5 = and i64 %bf.load.i.i, 1152920405095219200
  %cmp.not.i.i = icmp eq i64 %5, 1152920405095219200
  br i1 %cmp.not.i.i, label %_ZN4cvc58internal12NodeTemplateILb1EED2Ev.exit, label %if.then.i.i

if.then.i.i:                                      ; preds = %invoke.cont10
  %bf.value.i.i = add i64 %bf.load.i.i, 1152920405095219200
  %bf.shl.i.i = and i64 %bf.value.i.i, 1152920405095219200
  %bf.clear7.i.i = and i64 %bf.load.i.i, -1152920405095219201
  %bf.set.i.i = or disjoint i64 %bf.shl.i.i, %bf.clear7.i.i
  store i64 %bf.set.i.i, ptr %4, align 8
  %cmp12.i.i = icmp eq i64 %bf.shl.i.i, 0
  br i1 %cmp12.i.i, label %if.then13.i.i, label %_ZN4cvc58internal12NodeTemplateILb1EED2Ev.exit

if.then13.i.i:                                    ; preds = %if.then.i.i
  invoke void @_ZN4cvc58internal4expr9NodeValue15markForDeletionEv(ptr noundef nonnull align 8 dereferenceable(16) %4)
          to label %_ZN4cvc58internal12NodeTemplateILb1EED2Ev.exit unwind label %terminate.lpad.i

terminate.lpad.i:                                 ; preds = %if.then13.i.i
  %6 = landingpad { ptr, i32 }
          catch ptr null
  %7 = extractvalue { ptr, i32 } %6, 0
  call void @__clang_call_terminate(ptr %7) #15
  unreachable

_ZN4cvc58internal12NodeTemplateILb1EED2Ev.exit:   ; preds = %invoke.cont10, %if.then.i.i, %if.then13.i.i
  %d_value.i = getelementptr inbounds i8, ptr %ref.tmp5, i64 8
  invoke void @__gmpz_clear(ptr noundef nonnull %d_value.i)
          to label %_ZN4cvc58internal9BitVectorD2Ev.exit unwind label %terminate.lpad.i.i.i

terminate.lpad.i.i.i:                             ; preds = %_ZN4cvc58internal12NodeTemplateILb1EED2Ev.exit
  %8 = landingpad { ptr, i32 }
          catch ptr null
  %9 = extractvalue { ptr, i32 } %8, 0
  call void @__clang_call_terminate(ptr %9) #15
  unreachable

_ZN4cvc58internal9BitVectorD2Ev.exit:             ; preds = %_ZN4cvc58internal12NodeTemplateILb1EED2Ev.exit
  call void @_ZN4cvc58internal13FloatingPointD1Ev(ptr noundef nonnull align 8 dereferenceable(8) %arg0) #16
  ret void

lpad2:                                            ; preds = %invoke.cont3, %entry
  %10 = landingpad { ptr, i32 }
          cleanup
  br label %ehcleanup11

lpad7:                                            ; preds = %invoke.cont6
  %11 = landingpad { ptr, i32 }
          cleanup
  br label %ehcleanup

lpad9:                                            ; preds = %if.then13.i.i.i
  %12 = landingpad { ptr, i32 }
          cleanup
  call void @_ZN4cvc58internal12NodeTemplateILb1EED2Ev(ptr noundef nonnull align 8 dereferenceable(8) %agg.tmp) #16
  br label %ehcleanup

ehcleanup:                                        ; preds = %lpad9, %lpad7
  %.pn = phi { ptr, i32 } [ %12, %lpad9 ], [ %11, %lpad7 ]
  %d_value.i5 = getelementptr inbounds i8, ptr %ref.tmp5, i64 8
  invoke void @__gmpz_clear(ptr noundef nonnull %d_value.i5)
          to label %ehcleanup11 unwind label %terminate.lpad.i.i.i6

terminate.lpad.i.i.i6:                            ; preds = %ehcleanup
  %13 = landingpad { ptr, i32 }
          catch ptr null
  %14 = extractvalue { ptr, i32 } %13, 0
  call void @__clang_call_terminate(ptr %14) #15
  unreachable

ehcleanup11:                                      ; preds = %ehcleanup, %lpad2
  %.pn.pn = phi { ptr, i32 } [ %10, %lpad2 ], [ %.pn, %ehcleanup ]
  call void @_ZN4cvc58internal13FloatingPointD1Ev(ptr noundef nonnull align 8 dereferenceable(8) %arg0) #16
  resume { ptr, i32 } %.pn.pn
}